target datalayout = "e-m:e-p270:32:32-p271:32:32-p272:64:64-i64:64-i128:128-f80:128-n8:16:32:64-S128"
target triple = "x86_64-pc-linux-gnu"

%struct.X509_pubkey_st = type { ptr, ptr, ptr, ptr, ptr, i8 }
%struct.X509_algor_st = type { ptr, ptr }
%struct.evp_pkey_st = type { i32, i32, ptr, ptr, ptr, %union.legacy_pkey_st, %union.legacy_pkey_st, %struct.CRYPTO_REF_COUNT, ptr, ptr, i32, i8, %struct.crypto_ex_data_st, ptr, ptr, i64, ptr, i64, %struct.anon }
%union.legacy_pkey_st = type { ptr }
%struct.CRYPTO_REF_COUNT = type { i32 }
%struct.crypto_ex_data_st = type { ptr, ptr }
%struct.anon = type { i32, i32, i32 }
%struct.evp_pkey_asn1_method_st = type { i32, i32, i64, ptr, ptr, ptr, ptr, ptr, ptr, ptr, ptr, ptr, ptr, ptr, ptr, ptr, ptr, ptr, ptr, ptr, ptr, ptr, ptr, ptr, ptr, ptr, ptr, ptr, ptr, ptr, ptr, ptr, ptr, ptr, ptr, ptr, ptr, ptr, ptr, ptr, ptr }

@.str = private unnamed_addr constant [34 x i8] c"../openssl/crypto/x509/x_pubkey.c\00", align 1
@__func__.x509_pubkey_decode = private unnamed_addr constant [19 x i8] c"x509_pubkey_decode\00", align 1

; Function Attrs: nounwind uwtable
define internal i32 @x509_pubkey_decode(ptr noundef %0, ptr noundef %1) #0 {
  %3 = alloca i32, align 4
  %4 = alloca ptr, align 8
  %5 = alloca ptr, align 8
  %6 = alloca ptr, align 8
  %7 = alloca i32, align 4
  %8 = alloca ptr, align 8
  %9 = alloca i32, align 4
  store ptr %0, ptr %4, align 8, !tbaa !37
  store ptr %1, ptr %5, align 8, !tbaa !14
  call void @llvm.lifetime.start.p0(i64 8, ptr %6) #5
  call void @llvm.lifetime.start.p0(i64 4, ptr %7) #5
  %10 = load ptr, ptr %5, align 8, !tbaa !14
  %11 = getelementptr inbounds nuw %struct.X509_pubkey_st, ptr %10, i32 0, i32 0
  %12 = load ptr, ptr %11, align 8, !tbaa !25
  %13 = getelementptr inbounds nuw %struct.X509_algor_st, ptr %12, i32 0, i32 0
  %14 = load ptr, ptr %13, align 8, !tbaa !39
  %15 = call i32 @OBJ_obj2nid(ptr noundef %14)
  store i32 %15, ptr %7, align 4, !tbaa !43
  %16 = load ptr, ptr %5, align 8, !tbaa !14
  %17 = getelementptr inbounds nuw %struct.X509_pubkey_st, ptr %16, i32 0, i32 5
  %18 = load i8, ptr %17, align 8
  %19 = and i8 %18, 1
  %20 = zext i8 %19 to i32
  %21 = icmp ne i32 %20, 0
  br i1 %21, label %34, label %22

22:                                               ; preds = %2
  call void @llvm.lifetime.start.p0(i64 8, ptr %8) #5
  store ptr null, ptr %8, align 8, !tbaa !44
  %23 = load i32, ptr %7, align 4, !tbaa !43
  %24 = call ptr @ENGINE_get_pkey_meth_engine(i32 noundef %23)
  store ptr %24, ptr %8, align 8, !tbaa !44
  %25 = load ptr, ptr %8, align 8, !tbaa !44
  %26 = icmp eq ptr %25, null
  br i1 %26, label %27, label %28

27:                                               ; preds = %22
  store i32 0, ptr %3, align 4
  store i32 1, ptr %9, align 4
  br label %31

28:                                               ; preds = %22
  %29 = load ptr, ptr %8, align 8, !tbaa !44
  %30 = call i32 @ENGINE_finish(ptr noundef %29)
  store i32 0, ptr %9, align 4
  br label %31

31:                                               ; preds = %28, %27
  call void @llvm.lifetime.end.p0(i64 8, ptr %8) #5
  %32 = load i32, ptr %9, align 4
  switch i32 %32, label %70 [
    i32 0, label %33
  ]

33:                                               ; preds = %31
  br label %34

34:                                               ; preds = %33, %2
  %35 = call ptr @EVP_PKEY_new()
  store ptr %35, ptr %6, align 8, !tbaa !46
  %36 = load ptr, ptr %6, align 8, !tbaa !46
  %37 = icmp eq ptr %36, null
  br i1 %37, label %38, label %39

38:                                               ; preds = %34
  call void @ERR_new()
  call void @ERR_set_debug(ptr noundef @.str, i32 noundef 425, ptr noundef @__func__.x509_pubkey_decode)
  call void (i32, i32, ptr, ...) @ERR_set_error(i32 noundef 11, i32 noundef 524294, ptr noundef null)
  store i32 -1, ptr %3, align 4
  store i32 1, ptr %9, align 4
  br label %70

39:                                               ; preds = %34
  %40 = load ptr, ptr %6, align 8, !tbaa !46
  %41 = load i32, ptr %7, align 4, !tbaa !43
  %42 = call i32 @EVP_PKEY_set_type(ptr noundef %40, i32 noundef %41)
  %43 = icmp ne i32 %42, 0
  br i1 %43, label %45, label %44

44:                                               ; preds = %39
  call void @ERR_new()
  call void @ERR_set_debug(ptr noundef @.str, i32 noundef 430, ptr noundef @__func__.x509_pubkey_decode)
  call void (i32, i32, ptr, ...) @ERR_set_error(i32 noundef 11, i32 noundef 111, ptr noundef null)
  br label %68

45:                                               ; preds = %39
  %46 = load ptr, ptr %6, align 8, !tbaa !46
  %47 = getelementptr inbounds nuw %struct.evp_pkey_st, ptr %46, i32 0, i32 2
  %48 = load ptr, ptr %47, align 8, !tbaa !47
  %49 = getelementptr inbounds nuw %struct.evp_pkey_asn1_method_st, ptr %48, i32 0, i32 5
  %50 = load ptr, ptr %49, align 8, !tbaa !57
  %51 = icmp ne ptr %50, null
  br i1 %51, label %52, label %64

52:                                               ; preds = %45
  %53 = load ptr, ptr %6, align 8, !tbaa !46
  %54 = getelementptr inbounds nuw %struct.evp_pkey_st, ptr %53, i32 0, i32 2
  %55 = load ptr, ptr %54, align 8, !tbaa !47
  %56 = getelementptr inbounds nuw %struct.evp_pkey_asn1_method_st, ptr %55, i32 0, i32 5
  %57 = load ptr, ptr %56, align 8, !tbaa !57
  %58 = load ptr, ptr %6, align 8, !tbaa !46
  %59 = load ptr, ptr %5, align 8, !tbaa !14
  %60 = call i32 %57(ptr noundef %58, ptr noundef %59)
  %61 = icmp ne i32 %60, 0
  br i1 %61, label %63, label %62

62:                                               ; preds = %52
  br label %68

63:                                               ; preds = %52
  br label %65

64:                                               ; preds = %45
  call void @ERR_new()
  call void @ERR_set_debug(ptr noundef @.str, i32 noundef 443, ptr noundef @__func__.x509_pubkey_decode)
  call void (i32, i32, ptr, ...) @ERR_set_error(i32 noundef 11, i32 noundef 124, ptr noundef null)
  br label %68

65:                                               ; preds = %63
  %66 = load ptr, ptr %6, align 8, !tbaa !46
  %67 = load ptr, ptr %4, align 8, !tbaa !37
  store ptr %66, ptr %67, align 8, !tbaa !46
  store i32 1, ptr %3, align 4
  store i32 1, ptr %9, align 4
  br label %70

68:                                               ; preds = %64, %62, %44
  %69 = load ptr, ptr %6, align 8, !tbaa !46
  call void @EVP_PKEY_free(ptr noundef %69)
  store i32 0, ptr %3, align 4
  store i32 1, ptr %9, align 4
  br label %70

70:                                               ; preds = %68, %65, %38, %31
  call void @llvm.lifetime.end.p0(i64 4, ptr %7) #5
  call void @llvm.lifetime.end.p0(i64 8, ptr %6) #5
  %71 = load i32, ptr %3, align 4
  ret i32 %71
}