; Function Attrs: nounwind uwtable
define internal fastcc range(i32 -1, 2) i32 @x509_pubkey_decode(ptr noundef writeonly captures(none) %0, ptr noundef %1) unnamed_addr #0 {
  %3 = load ptr, ptr %1, align 8, !tbaa !17
  %4 = load ptr, ptr %3, align 8, !tbaa !26
  %5 = tail call i32 @OBJ_obj2nid(ptr noundef %4) #9
  %6 = getelementptr inbounds nuw i8, ptr %1, i64 40
  %7 = load i8, ptr %6, align 8
  %8 = and i8 %7, 1
  %.not = icmp eq i8 %8, 0
  br i1 %.not, label %9, label %13

9:                                                ; preds = %2
  %10 = tail call ptr @ENGINE_get_pkey_meth_engine(i32 noundef %5) #9
  %.not20 = icmp eq ptr %10, null
  br i1 %.not20, label %.critedge, label %11

11:                                               ; preds = %9
  %12 = tail call i32 @ENGINE_finish(ptr noundef nonnull %10) #9
  br label %13

13:                                               ; preds = %11, %2
  %14 = tail call ptr @EVP_PKEY_new() #9
  %15 = icmp eq ptr %14, null
  br i1 %15, label %16, label %17

16:                                               ; preds = %13
  tail call void @ERR_new() #9
  tail call void @ERR_set_debug(ptr noundef nonnull @.str, i32 noundef 425, ptr noundef nonnull @__func__.x509_pubkey_decode) #9
  tail call void (i32, i32, ptr, ...) @ERR_set_error(i32 noundef 11, i32 noundef 524294, ptr noundef null) #9
  br label %.critedge

17:                                               ; preds = %13
  %18 = tail call i32 @EVP_PKEY_set_type(ptr noundef nonnull %14, i32 noundef %5) #9
  %.not21 = icmp eq i32 %18, 0
  br i1 %.not21, label %.sink.split, label %19

19:                                               ; preds = %17
  %20 = getelementptr inbounds nuw i8, ptr %14, i64 8
  %21 = load ptr, ptr %20, align 8, !tbaa !30
  %22 = getelementptr inbounds nuw i8, ptr %21, i64 32
  %23 = load ptr, ptr %22, align 8, !tbaa !41
  %.not22 = icmp eq ptr %23, null
  br i1 %.not22, label %.sink.split, label %24

24:                                               ; preds = %19
  %25 = tail call i32 %23(ptr noundef nonnull %14, ptr noundef nonnull %1) #9
  %.not23 = icmp eq i32 %25, 0
  br i1 %.not23, label %27, label %26

26:                                               ; preds = %24
  store ptr %14, ptr %0, align 8, !tbaa !43
  br label %.critedge

.sink.split:                                      ; preds = %19, %17
  %.sink24 = phi i32 [ 430, %17 ], [ 443, %19 ]
  %.sink = phi i32 [ 111, %17 ], [ 124, %19 ]
  tail call void @ERR_new() #9
  tail call void @ERR_set_debug(ptr noundef nonnull @.str, i32 noundef %.sink24, ptr noundef nonnull @__func__.x509_pubkey_decode) #9
  tail call void (i32, i32, ptr, ...) @ERR_set_error(i32 noundef 11, i32 noundef %.sink, ptr noundef null) #9
  br label %27

27:                                               ; preds = %.sink.split, %24
  tail call void @EVP_PKEY_free(ptr noundef nonnull %14) #9
  br label %.critedge

.critedge:                                        ; preds = %9, %27, %26, %16
  %.1 = phi i32 [ -1, %16 ], [ 1, %26 ], [ 0, %27 ], [ 0, %9 ]
  ret i32 %.1
}